; ModuleID = '52/2214.c'
source_filename = "52/2214.c"
target datalayout = "e-m:e-p270:32:32-p271:32:32-p272:64:64-i64:64-f80:128-n8:16:32:64-S128"
target triple = "x86_64-pc-linux-gnu"

@.str = private unnamed_addr constant [6 x i8] c"%d %d\00", align 1
@.str.1 = private unnamed_addr constant [3 x i8] c"%d\00", align 1
@.str.2 = private unnamed_addr constant [4 x i8] c"%d \00", align 1

; Function Attrs: noinline nounwind uwtable
define dso_local i32 @main() #0 {
  %1 = alloca i32, align 4
  %2 = alloca [1000 x i32], align 16
  %3 = alloca [1000 x i32], align 16
  %4 = alloca i32, align 4
  %5 = alloca i32, align 4
  %6 = alloca i32, align 4
  %7 = alloca i32, align 4
  %8 = alloca i32, align 4
  store i32 0, i32* %1, align 4
  %9 = call i32 (i8*, ...) @__isoc99_scanf(i8* getelementptr inbounds ([6 x i8], [6 x i8]* @.str, i64 0, i64 0), i32* %4, i32* %5)
  store i32 0, i32* %6, align 4
  br label %10

10:                                               ; preds = %19, %0
  %11 = load i32, i32* %6, align 4
  %12 = load i32, i32* %4, align 4
  %13 = icmp slt i32 %11, %12
  br i1 %13, label %14, label %22

14:                                               ; preds = %10
  %15 = load i32, i32* %6, align 4
  %16 = sext i32 %15 to i64
  %17 = getelementptr inbounds [1000 x i32], [1000 x i32]* %2, i64 0, i64 %16
  %18 = call i32 (i8*, ...) @__isoc99_scanf(i8* getelementptr inbounds ([3 x i8], [3 x i8]* @.str.1, i64 0, i64 0), i32* %17)
  br label %19

19:                                               ; preds = %14
  %20 = load i32, i32* %6, align 4
  %21 = add nsw i32 %20, 1
  store i32 %21, i32* %6, align 4
  br label %10

22:                                               ; preds = %10
  store i32 0, i32* %7, align 4
  br label %23

23:                                               ; preds = %59, %22
  %24 = load i32, i32* %7, align 4
  %25 = load i32, i32* %4, align 4
  %26 = icmp slt i32 %24, %25
  br i1 %26, label %27, label %62

27:                                               ; preds = %23
  %28 = load i32, i32* %7, align 4
  %29 = load i32, i32* %5, align 4
  %30 = icmp slt i32 %28, %29
  br i1 %30, label %31, label %43

31:                                               ; preds = %27
  %32 = load i32, i32* %4, align 4
  %33 = load i32, i32* %5, align 4
  %34 = sub nsw i32 %32, %33
  %35 = load i32, i32* %7, align 4
  %36 = add nsw i32 %34, %35
  %37 = sext i32 %36 to i64
  %38 = getelementptr inbounds [1000 x i32], [1000 x i32]* %2, i64 0, i64 %37
  %39 = load i32, i32* %38, align 4
  %40 = load i32, i32* %7, align 4
  %41 = sext i32 %40 to i64
  %42 = getelementptr inbounds [1000 x i32], [1000 x i32]* %3, i64 0, i64 %41
  store i32 %39, i32* %42, align 4
  br label %58

43:                                               ; preds = %27
  %44 = load i32, i32* %7, align 4
  %45 = load i32, i32* %5, align 4
  %46 = icmp sge i32 %44, %45
  br i1 %46, label %47, label %57

47:                                               ; preds = %43
  %48 = load i32, i32* %7, align 4
  %49 = load i32, i32* %5, align 4
  %50 = sub nsw i32 %48, %49
  %51 = sext i32 %50 to i64
  %52 = getelementptr inbounds [1000 x i32], [1000 x i32]* %2, i64 0, i64 %51
  %53 = load i32, i32* %52, align 4
  %54 = load i32, i32* %7, align 4
  %55 = sext i32 %54 to i64
  %56 = getelementptr inbounds [1000 x i32], [1000 x i32]* %3, i64 0, i64 %55
  store i32 %53, i32* %56, align 4
  br label %57

57:                                               ; preds = %47, %43
  br label %58

58:                                               ; preds = %57, %31
  br label %59

59:                                               ; preds = %58
  %60 = load i32, i32* %7, align 4
  %61 = add nsw i32 %60, 1
  store i32 %61, i32* %7, align 4
  br label %23

62:                                               ; preds = %23
  store i32 0, i32* %8, align 4
  br label %63

63:                                               ; preds = %74, %62
  %64 = load i32, i32* %8, align 4
  %65 = load i32, i32* %4, align 4
  %66 = sub nsw i32 %65, 1
  %67 = icmp slt i32 %64, %66
  br i1 %67, label %68, label %77

68:                                               ; preds = %63
  %69 = load i32, i32* %8, align 4
  %70 = sext i32 %69 to i64
  %71 = getelementptr inbounds [1000 x i32], [1000 x i32]* %3, i64 0, i64 %70
  %72 = load i32, i32* %71, align 4
  %73 = call i32 (i8*, ...) @printf(i8* getelementptr inbounds ([4 x i8], [4 x i8]* @.str.2, i64 0, i64 0), i32 %72)
  br label %74

74:                                               ; preds = %68
  %75 = load i32, i32* %8, align 4
  %76 = add nsw i32 %75, 1
  store i32 %76, i32* %8, align 4
  br label %63

77:                                               ; preds = %63
  %78 = load i32, i32* %4, align 4
  %79 = sub nsw i32 %78, 1
  %80 = sext i32 %79 to i64
  %81 = getelementptr inbounds [1000 x i32], [1000 x i32]* %3, i64 0, i64 %80
  %82 = load i32, i32* %81, align 4
  %83 = call i32 (i8*, ...) @printf(i8* getelementptr inbounds ([3 x i8], [3 x i8]* @.str.1, i64 0, i64 0), i32 %82)
  ret i32 0
}

declare dso_local i32 @__isoc99_scanf(i8*, ...) #1

declare dso_local i32 @printf(i8*, ...) #1


!llvm.module.flags = !{!0}
!llvm.ident = !{!1}

!0 = !{i32 1, !"wchar_size", i32 4}
!1 = !{!"clang version 10.0.0-4ubuntu1 "}
